target datalayout = "e-m:e-p270:32:32-p271:32:32-p272:64:64-i64:64-i128:128-f80:128-n8:16:32:64-S128"
target triple = "x86_64-pc-linux-gnu"

%"struct.cv::Ptr" = type { %"class.std::shared_ptr" }
%"class.std::shared_ptr" = type { %"class.std::__shared_ptr" }
%"class.std::__shared_ptr" = type { ptr, %"class.std::__shared_count" }
%"class.std::__shared_count" = type { ptr }
%"class.cv::detail::tracking::TrackerModel" = type <{ ptr, %"class.std::vector", %"struct.cv::Ptr", %"class.std::vector.0", %"class.std::vector.5", i32, [4 x i8] }>
%"class.std::vector" = type { %"struct.std::_Vector_base" }
%"struct.std::_Vector_base" = type { %"struct.std::_Vector_base<std::vector<std::pair<cv::Ptr<cv::detail::tracking::TrackerTargetState>, float>>, std::allocator<std::vector<std::pair<cv::Ptr<cv::detail::tracking::TrackerTargetState>, float>>>>::_Vector_impl" }
%"struct.std::_Vector_base<std::vector<std::pair<cv::Ptr<cv::detail::tracking::TrackerTargetState>, float>>, std::allocator<std::vector<std::pair<cv::Ptr<cv::detail::tracking::TrackerTargetState>, float>>>>::_Vector_impl" = type { %"struct.std::_Vector_base<std::vector<std::pair<cv::Ptr<cv::detail::tracking::TrackerTargetState>, float>>, std::allocator<std::vector<std::pair<cv::Ptr<cv::detail::tracking::TrackerTargetState>, float>>>>::_Vector_impl_data" }
%"struct.std::_Vector_base<std::vector<std::pair<cv::Ptr<cv::detail::tracking::TrackerTargetState>, float>>, std::allocator<std::vector<std::pair<cv::Ptr<cv::detail::tracking::TrackerTargetState>, float>>>>::_Vector_impl_data" = type { ptr, ptr, ptr }
%"class.std::vector.0" = type { %"struct.std::_Vector_base.1" }
%"struct.std::_Vector_base.1" = type { %"struct.std::_Vector_base<std::pair<cv::Ptr<cv::detail::tracking::TrackerTargetState>, float>, std::allocator<std::pair<cv::Ptr<cv::detail::tracking::TrackerTargetState>, float>>>::_Vector_impl" }
%"struct.std::_Vector_base<std::pair<cv::Ptr<cv::detail::tracking::TrackerTargetState>, float>, std::allocator<std::pair<cv::Ptr<cv::detail::tracking::TrackerTargetState>, float>>>::_Vector_impl" = type { %"struct.std::_Vector_base<std::pair<cv::Ptr<cv::detail::tracking::TrackerTargetState>, float>, std::allocator<std::pair<cv::Ptr<cv::detail::tracking::TrackerTargetState>, float>>>::_Vector_impl_data" }
%"struct.std::_Vector_base<std::pair<cv::Ptr<cv::detail::tracking::TrackerTargetState>, float>, std::allocator<std::pair<cv::Ptr<cv::detail::tracking::TrackerTargetState>, float>>>::_Vector_impl_data" = type { ptr, ptr, ptr }
%"class.std::vector.5" = type { %"struct.std::_Vector_base.6" }
%"struct.std::_Vector_base.6" = type { %"struct.std::_Vector_base<cv::Ptr<cv::detail::tracking::TrackerTargetState>, std::allocator<cv::Ptr<cv::detail::tracking::TrackerTargetState>>>::_Vector_impl" }
%"struct.std::_Vector_base<cv::Ptr<cv::detail::tracking::TrackerTargetState>, std::allocator<cv::Ptr<cv::detail::tracking::TrackerTargetState>>>::_Vector_impl" = type { %"struct.std::_Vector_base<cv::Ptr<cv::detail::tracking::TrackerTargetState>, std::allocator<cv::Ptr<cv::detail::tracking::TrackerTargetState>>>::_Vector_impl_data" }
%"struct.std::_Vector_base<cv::Ptr<cv::detail::tracking::TrackerTargetState>, std::allocator<cv::Ptr<cv::detail::tracking::TrackerTargetState>>>::_Vector_impl_data" = type { ptr, ptr, ptr }
%"class.__gnu_cxx::__normal_iterator.17" = type { ptr }
%"struct.cv::Ptr.21" = type { %"class.std::shared_ptr.22" }
%"class.std::shared_ptr.22" = type { %"class.std::__shared_ptr.23" }
%"class.std::__shared_ptr.23" = type { ptr, %"class.std::__shared_count" }
%"class.std::_Sp_counted_base" = type { ptr, i32, i32 }

@__libc_single_threaded = external global i8, align 1

; Function Attrs: alwaysinline mustprogress nounwind uwtable
define linkonce_odr void @_ZN9__gnu_cxx12__atomic_addEPVii(ptr noundef %0, i32 noundef %1) #13 comdat {
  %3 = alloca ptr, align 8
  %4 = alloca i32, align 4
  %5 = alloca i32, align 4
  %6 = alloca i32, align 4
  store ptr %0, ptr %3, align 8, !tbaa !136
  store i32 %1, ptr %4, align 4, !tbaa !52
  %7 = load ptr, ptr %3, align 8, !tbaa !136
  %8 = load i32, ptr %4, align 4, !tbaa !52
  store i32 %8, ptr %5, align 4, !tbaa !52
  %9 = load i32, ptr %5, align 4
  %10 = atomicrmw volatile add ptr %7, i32 %9 acq_rel, align 4
  store i32 %10, ptr %6, align 4
  ret void
}

; Function Attrs: alwaysinline mustprogress nounwind uwtable
define linkonce_odr void @_ZN9__gnu_cxx19__atomic_add_singleEPii(ptr noundef %0, i32 noundef %1) #13 comdat {
  %3 = alloca ptr, align 8
  %4 = alloca i32, align 4
  store ptr %0, ptr %3, align 8, !tbaa !136
  store i32 %1, ptr %4, align 4, !tbaa !52
  %5 = load i32, ptr %4, align 4, !tbaa !52
  %6 = load ptr, ptr %3, align 8, !tbaa !136
  %7 = load i32, ptr %6, align 4, !tbaa !52
  %8 = add nsw i32 %7, %5
  store i32 %8, ptr %6, align 4, !tbaa !52
  ret void
}

; Function Attrs: alwaysinline mustprogress nounwind uwtable
define linkonce_odr noundef zeroext i1 @_ZN9__gnu_cxx20__is_single_threadedEv() #13 comdat {
  %1 = load i8, ptr @__libc_single_threaded, align 1, !tbaa !138
  %2 = icmp ne i8 %1, 0
  ret i1 %2
}

; Function Attrs: alwaysinline mustprogress uwtable
define linkonce_odr void @_ZN9__gnu_cxx21__atomic_add_dispatchEPii(ptr noundef %0, i32 noundef %1) #9 comdat {
  %3 = alloca ptr, align 8
  %4 = alloca i32, align 4
  store ptr %0, ptr %3, align 8, !tbaa !136
  store i32 %1, ptr %4, align 4, !tbaa !52
  %5 = call noundef zeroext i1 @_ZN9__gnu_cxx20__is_single_threadedEv() #18
  br i1 %5, label %6, label %9

6:                                                ; preds = %2
  %7 = load ptr, ptr %3, align 8, !tbaa !136
  %8 = load i32, ptr %4, align 4, !tbaa !52
  call void @_ZN9__gnu_cxx19__atomic_add_singleEPii(ptr noundef %7, i32 noundef %8)
  br label %12

9:                                                ; preds = %2
  %10 = load ptr, ptr %3, align 8, !tbaa !136
  %11 = load i32, ptr %4, align 4, !tbaa !52
  call void @_ZN9__gnu_cxx12__atomic_addEPVii(ptr noundef %10, i32 noundef %11)
  br label %12

12:                                               ; preds = %9, %6
  ret void
}

; Function Attrs: noinline noreturn nounwind uwtable
define linkonce_odr hidden void @__clang_call_terminate(ptr noundef %0) #10 comdat {
  %2 = call ptr @__cxa_begin_catch(ptr %0) #18
  call void @_ZSt9terminatev() #19
  unreachable
}

; Function Attrs: mustprogress uwtable
define linkonce_odr hidden void @_ZNSt16_Sp_counted_baseILN9__gnu_cxx12_Lock_policyE2EE15_M_add_ref_copyEv(ptr noundef nonnull align 8 dereferenceable(16) %0) #0 comdat align 2 {
  %2 = alloca ptr, align 8
  store ptr %0, ptr %2, align 8, !tbaa !126
  %3 = load ptr, ptr %2, align 8
  %4 = getelementptr inbounds nuw %"class.std::_Sp_counted_base", ptr %3, i32 0, i32 1
  call void @_ZN9__gnu_cxx21__atomic_add_dispatchEPii(ptr noundef %4, i32 noundef 1)
  ret void
}

; Function Attrs: mustprogress nounwind uwtable
define linkonce_odr hidden void @_ZNSt14__shared_countILN9__gnu_cxx12_Lock_policyE2EEC2ERKS2_(ptr noundef nonnull align 8 dereferenceable(8) %0, ptr noundef nonnull align 8 dereferenceable(8) %1) unnamed_addr #1 comdat align 2 personality ptr @__gxx_personality_v0 {
  %3 = alloca ptr, align 8
  %4 = alloca ptr, align 8
  store ptr %0, ptr %3, align 8, !tbaa !123
  store ptr %1, ptr %4, align 8, !tbaa !123
  %5 = load ptr, ptr %3, align 8
  %6 = getelementptr inbounds nuw %"class.std::__shared_count", ptr %5, i32 0, i32 0
  %7 = load ptr, ptr %4, align 8, !tbaa !123
  %8 = getelementptr inbounds nuw %"class.std::__shared_count", ptr %7, i32 0, i32 0
  %9 = load ptr, ptr %8, align 8, !tbaa !125
  store ptr %9, ptr %6, align 8, !tbaa !125
  %10 = getelementptr inbounds nuw %"class.std::__shared_count", ptr %5, i32 0, i32 0
  %11 = load ptr, ptr %10, align 8, !tbaa !125
  %12 = icmp ne ptr %11, null
  br i1 %12, label %13, label %17

13:                                               ; preds = %2
  %14 = getelementptr inbounds nuw %"class.std::__shared_count", ptr %5, i32 0, i32 0
  %15 = load ptr, ptr %14, align 8, !tbaa !125
  invoke void @_ZNSt16_Sp_counted_baseILN9__gnu_cxx12_Lock_policyE2EE15_M_add_ref_copyEv(ptr noundef nonnull align 8 dereferenceable(16) %15)
          to label %16 unwind label %18

16:                                               ; preds = %13
  br label %17

17:                                               ; preds = %16, %2
  ret void

18:                                               ; preds = %13
  %19 = landingpad { ptr, i32 }
          catch ptr null
  %20 = extractvalue { ptr, i32 } %19, 0
  call void @__clang_call_terminate(ptr %20) #19
  unreachable
}

; Function Attrs: mustprogress nounwind uwtable
define linkonce_odr hidden void @_ZNSt12__shared_ptrIN2cv6detail8tracking18TrackerTargetStateELN9__gnu_cxx12_Lock_policyE2EEC2ERKS6_(ptr noundef nonnull align 8 dereferenceable(16) %0, ptr noundef nonnull align 8 dereferenceable(16) %1) unnamed_addr #1 comdat align 2 {
  %3 = alloca ptr, align 8
  %4 = alloca ptr, align 8
  store ptr %0, ptr %3, align 8, !tbaa !79
  store ptr %1, ptr %4, align 8, !tbaa !79
  %5 = load ptr, ptr %3, align 8
  %6 = getelementptr inbounds nuw %"class.std::__shared_ptr.23", ptr %5, i32 0, i32 0
  %7 = load ptr, ptr %4, align 8, !tbaa !79
  %8 = getelementptr inbounds nuw %"class.std::__shared_ptr.23", ptr %7, i32 0, i32 0
  %9 = load ptr, ptr %8, align 8, !tbaa !81
  store ptr %9, ptr %6, align 8, !tbaa !81
  %10 = getelementptr inbounds nuw %"class.std::__shared_ptr.23", ptr %5, i32 0, i32 1
  %11 = load ptr, ptr %4, align 8, !tbaa !79
  %12 = getelementptr inbounds nuw %"class.std::__shared_ptr.23", ptr %11, i32 0, i32 1
  call void @_ZNSt14__shared_countILN9__gnu_cxx12_Lock_policyE2EEC2ERKS2_(ptr noundef nonnull align 8 dereferenceable(8) %10, ptr noundef nonnull align 8 dereferenceable(8) %12) #18
  ret void
}

; Function Attrs: mustprogress nounwind uwtable
define linkonce_odr hidden void @_ZN9__gnu_cxx17__normal_iteratorIPKN2cv3PtrINS1_6detail8tracking18TrackerTargetStateEEESt6vectorIS6_SaIS6_EEEC2ERKS8_(ptr noundef nonnull align 8 dereferenceable(8) %0, ptr noundef nonnull align 8 dereferenceable(8) %1) unnamed_addr #1 comdat align 2 {
  %3 = alloca ptr, align 8
  %4 = alloca ptr, align 8
  store ptr %0, ptr %3, align 8, !tbaa !63
  store ptr %1, ptr %4, align 8, !tbaa !169
  %5 = load ptr, ptr %3, align 8
  %6 = getelementptr inbounds nuw %"class.__gnu_cxx::__normal_iterator.17", ptr %5, i32 0, i32 0
  %7 = load ptr, ptr %4, align 8, !tbaa !169
  %8 = load ptr, ptr %7, align 8, !tbaa !67
  store ptr %8, ptr %6, align 8, !tbaa !68
  ret void
}

; Function Attrs: mustprogress nounwind uwtable
define linkonce_odr hidden void @_ZNSt10shared_ptrIN2cv6detail8tracking18TrackerTargetStateEEC2ERKS4_(ptr noundef nonnull align 8 dereferenceable(16) %0, ptr noundef nonnull align 8 dereferenceable(16) %1) unnamed_addr #1 comdat align 2 {
  %3 = alloca ptr, align 8
  %4 = alloca ptr, align 8
  store ptr %0, ptr %3, align 8, !tbaa !173
  store ptr %1, ptr %4, align 8, !tbaa !173
  %5 = load ptr, ptr %3, align 8
  %6 = load ptr, ptr %4, align 8, !tbaa !173
  call void @_ZNSt12__shared_ptrIN2cv6detail8tracking18TrackerTargetStateELN9__gnu_cxx12_Lock_policyE2EEC2ERKS6_(ptr noundef nonnull align 8 dereferenceable(16) %5, ptr noundef nonnull align 8 dereferenceable(16) %6) #18
  ret void
}

; Function Attrs: mustprogress nounwind uwtable
define linkonce_odr hidden noundef nonnull align 8 dereferenceable(16) ptr @_ZNK9__gnu_cxx17__normal_iteratorIPKN2cv3PtrINS1_6detail8tracking18TrackerTargetStateEEESt6vectorIS6_SaIS6_EEEdeEv(ptr noundef nonnull align 8 dereferenceable(8) %0) #1 comdat align 2 {
  %2 = alloca ptr, align 8
  store ptr %0, ptr %2, align 8, !tbaa !63
  %3 = load ptr, ptr %2, align 8
  %4 = getelementptr inbounds nuw %"class.__gnu_cxx::__normal_iterator.17", ptr %3, i32 0, i32 0
  %5 = load ptr, ptr %4, align 8, !tbaa !68
  ret ptr %5
}

; Function Attrs: mustprogress nounwind uwtable
define linkonce_odr hidden ptr @_ZNK9__gnu_cxx17__normal_iteratorIPKN2cv3PtrINS1_6detail8tracking18TrackerTargetStateEEESt6vectorIS6_SaIS6_EEEmiEl(ptr noundef nonnull align 8 dereferenceable(8) %0, i64 noundef %1) #1 comdat align 2 {
  %3 = alloca %"class.__gnu_cxx::__normal_iterator.17", align 8
  %4 = alloca ptr, align 8
  %5 = alloca i64, align 8
  %6 = alloca ptr, align 8
  store ptr %0, ptr %4, align 8, !tbaa !63
  store i64 %1, ptr %5, align 8, !tbaa !59
  %7 = load ptr, ptr %4, align 8
  call void @llvm.lifetime.start.p0(i64 8, ptr %6) #18
  %8 = getelementptr inbounds nuw %"class.__gnu_cxx::__normal_iterator.17", ptr %7, i32 0, i32 0
  %9 = load ptr, ptr %8, align 8, !tbaa !68
  %10 = load i64, ptr %5, align 8, !tbaa !59
  %11 = sub i64 0, %10
  %12 = getelementptr inbounds %"struct.cv::Ptr.21", ptr %9, i64 %11
  store ptr %12, ptr %6, align 8, !tbaa !67
  call void @_ZN9__gnu_cxx17__normal_iteratorIPKN2cv3PtrINS1_6detail8tracking18TrackerTargetStateEEESt6vectorIS6_SaIS6_EEEC2ERKS8_(ptr noundef nonnull align 8 dereferenceable(8) %3, ptr noundef nonnull align 8 dereferenceable(8) %6) #18
  call void @llvm.lifetime.end.p0(i64 8, ptr %6) #18
  %13 = getelementptr inbounds nuw %"class.__gnu_cxx::__normal_iterator.17", ptr %3, i32 0, i32 0
  %14 = load ptr, ptr %13, align 8
  ret ptr %14
}

; Function Attrs: mustprogress nounwind uwtable
define linkonce_odr hidden ptr @_ZNKSt6vectorIN2cv3PtrINS0_6detail8tracking18TrackerTargetStateEEESaIS5_EE3endEv(ptr noundef nonnull align 8 dereferenceable(24) %0) #1 comdat align 2 {
  %2 = alloca %"class.__gnu_cxx::__normal_iterator.17", align 8
  %3 = alloca ptr, align 8
  store ptr %0, ptr %3, align 8, !tbaa !39
  %4 = load ptr, ptr %3, align 8
  %5 = getelementptr inbounds nuw %"struct.std::_Vector_base.6", ptr %4, i32 0, i32 0
  %6 = getelementptr inbounds nuw %"struct.std::_Vector_base<cv::Ptr<cv::detail::tracking::TrackerTargetState>, std::allocator<cv::Ptr<cv::detail::tracking::TrackerTargetState>>>::_Vector_impl_data", ptr %5, i32 0, i32 1
  call void @_ZN9__gnu_cxx17__normal_iteratorIPKN2cv3PtrINS1_6detail8tracking18TrackerTargetStateEEESt6vectorIS6_SaIS6_EEEC2ERKS8_(ptr noundef nonnull align 8 dereferenceable(8) %2, ptr noundef nonnull align 8 dereferenceable(8) %6) #18
  %7 = getelementptr inbounds nuw %"class.__gnu_cxx::__normal_iterator.17", ptr %2, i32 0, i32 0
  %8 = load ptr, ptr %7, align 8
  ret ptr %8
}

; Function Attrs: inlinehint mustprogress nounwind uwtable
define linkonce_odr hidden void @_ZN2cv3PtrINS_6detail8tracking18TrackerTargetStateEEC2ERKS4_(ptr noundef nonnull align 8 dereferenceable(16) %0, ptr noundef nonnull align 8 dereferenceable(16) %1) unnamed_addr #2 comdat align 2 {
  %3 = alloca ptr, align 8
  %4 = alloca ptr, align 8
  store ptr %0, ptr %3, align 8, !tbaa !67
  store ptr %1, ptr %4, align 8, !tbaa !67
  %5 = load ptr, ptr %3, align 8
  %6 = load ptr, ptr %4, align 8, !tbaa !67
  call void @_ZNSt10shared_ptrIN2cv6detail8tracking18TrackerTargetStateEEC2ERKS4_(ptr noundef nonnull align 8 dereferenceable(16) %5, ptr noundef nonnull align 8 dereferenceable(16) %6) #18
  ret void
}

; Function Attrs: mustprogress nounwind uwtable
define linkonce_odr hidden noundef nonnull align 8 dereferenceable(16) ptr @_ZNKSt6vectorIN2cv3PtrINS0_6detail8tracking18TrackerTargetStateEEESaIS5_EE4backEv(ptr noundef nonnull align 8 dereferenceable(24) %0) #1 comdat align 2 {
  %2 = alloca ptr, align 8
  %3 = alloca %"class.__gnu_cxx::__normal_iterator.17", align 8
  %4 = alloca %"class.__gnu_cxx::__normal_iterator.17", align 8
  store ptr %0, ptr %2, align 8, !tbaa !39
  %5 = load ptr, ptr %2, align 8
  call void @llvm.lifetime.start.p0(i64 8, ptr %3) #18
  call void @llvm.lifetime.start.p0(i64 8, ptr %4) #18
  %6 = call ptr @_ZNKSt6vectorIN2cv3PtrINS0_6detail8tracking18TrackerTargetStateEEESaIS5_EE3endEv(ptr noundef nonnull align 8 dereferenceable(24) %5) #18
  %7 = getelementptr inbounds nuw %"class.__gnu_cxx::__normal_iterator.17", ptr %4, i32 0, i32 0
  store ptr %6, ptr %7, align 8
  %8 = call ptr @_ZNK9__gnu_cxx17__normal_iteratorIPKN2cv3PtrINS1_6detail8tracking18TrackerTargetStateEEESt6vectorIS6_SaIS6_EEEmiEl(ptr noundef nonnull align 8 dereferenceable(8) %4, i64 noundef 1) #18
  %9 = getelementptr inbounds nuw %"class.__gnu_cxx::__normal_iterator.17", ptr %3, i32 0, i32 0
  store ptr %8, ptr %9, align 8
  %10 = call noundef nonnull align 8 dereferenceable(16) ptr @_ZNK9__gnu_cxx17__normal_iteratorIPKN2cv3PtrINS1_6detail8tracking18TrackerTargetStateEEESt6vectorIS6_SaIS6_EEEdeEv(ptr noundef nonnull align 8 dereferenceable(8) %3) #18
  call void @llvm.lifetime.end.p0(i64 8, ptr %4) #18
  call void @llvm.lifetime.end.p0(i64 8, ptr %3) #18
  ret ptr %10
}

; Function Attrs: mustprogress nounwind uwtable
define void @_ZNK2cv6detail8tracking12TrackerModel18getLastTargetStateEv(ptr dead_on_unwind noalias writable sret(%"struct.cv::Ptr.21") align 8 %0, ptr noundef nonnull align 8 dereferenceable(100) %1) #1 align 2 {
  %3 = alloca ptr, align 8
  %4 = alloca ptr, align 8
  store ptr %0, ptr %3, align 8
  store ptr %1, ptr %4, align 8, !tbaa !3
  %5 = load ptr, ptr %4, align 8
  %6 = getelementptr inbounds nuw %"class.cv::detail::tracking::TrackerModel", ptr %5, i32 0, i32 4
  %7 = call noundef nonnull align 8 dereferenceable(16) ptr @_ZNKSt6vectorIN2cv3PtrINS0_6detail8tracking18TrackerTargetStateEEESaIS5_EE4backEv(ptr noundef nonnull align 8 dereferenceable(24) %6) #18
  call void @_ZN2cv3PtrINS_6detail8tracking18TrackerTargetStateEEC2ERKS4_(ptr noundef nonnull align 8 dereferenceable(16) %0, ptr noundef nonnull align 8 dereferenceable(16) %7) #18
  ret void
}